target datalayout = "e-m:e-p270:32:32-p271:32:32-p272:64:64-i64:64-i128:128-f80:128-n8:16:32:64-S128"
target triple = "x86_64-pc-linux-gnu"

%struct._header_field_info = type { ptr, ptr, i32, i32, ptr, i64, ptr, i32, i32, i32, i32, ptr }

@.str.1 = private unnamed_addr constant [94 x i8] c"MATE Error: add field to Pdu: attempt to add %s(%i) as %s failed: field already added as '%s'\00", align 1
@.str.2 = private unnamed_addr constant [47 x i8] c"MATE Error: cannot find field for attribute %s\00", align 1

; Function Attrs: null_pointer_is_valid sspstrong uwtable
define hidden zeroext i1 @add_hfid(ptr noundef %0, ptr noundef %1, ptr noundef %2, ptr noundef %3) #0 {
  %5 = alloca i1, align 1
  %6 = alloca ptr, align 8
  %7 = alloca ptr, align 8
  %8 = alloca ptr, align 8
  %9 = alloca ptr, align 8
  %10 = alloca ptr, align 8
  %11 = alloca i8, align 1
  %12 = alloca ptr, align 8
  %13 = alloca ptr, align 8
  %14 = alloca ptr, align 8
  %15 = alloca i64, align 8
  %16 = alloca i64, align 8
  %17 = alloca ptr, align 8
  %18 = alloca ptr, align 8
  %19 = alloca i32, align 4
  store ptr %0, ptr %6, align 8
  store ptr %1, ptr %7, align 8
  store ptr %2, ptr %8, align 8
  store ptr %3, ptr %9, align 8
  call void @llvm.lifetime.start.p0(i64 8, ptr %10) #14
  store ptr null, ptr %10, align 8
  call void @llvm.lifetime.start.p0(i64 1, ptr %11) #14
  store i8 0, ptr %11, align 1
  call void @llvm.lifetime.start.p0(i64 8, ptr %12) #14
  call void @llvm.lifetime.start.p0(i64 8, ptr %13) #14
  call void @llvm.lifetime.start.p0(i64 8, ptr %14) #14
  br label %20

20:                                               ; preds = %35, %4
  %21 = load ptr, ptr %7, align 8
  %22 = icmp ne ptr %21, null
  br i1 %22, label %23, label %37

23:                                               ; preds = %20
  %24 = load ptr, ptr %7, align 8
  store ptr %24, ptr %10, align 8
  %25 = load ptr, ptr %7, align 8
  %26 = getelementptr inbounds nuw %struct._header_field_info, ptr %25, i32 0, i32 10
  %27 = load i32, ptr %26, align 4
  %28 = icmp ne i32 %27, -1
  br i1 %28, label %29, label %34

29:                                               ; preds = %23
  %30 = load ptr, ptr %7, align 8
  %31 = getelementptr inbounds nuw %struct._header_field_info, ptr %30, i32 0, i32 10
  %32 = load i32, ptr %31, align 4
  %33 = call ptr @proto_registrar_get_nth(i32 noundef %32)
  br label %35

34:                                               ; preds = %23
  br label %35

35:                                               ; preds = %34, %29
  %36 = phi ptr [ %33, %29 ], [ null, %34 ]
  store ptr %36, ptr %7, align 8
  br label %20, !llvm.loop !6

37:                                               ; preds = %20
  %38 = load ptr, ptr %10, align 8
  store ptr %38, ptr %7, align 8
  br label %39

39:                                               ; preds = %104, %37
  %40 = load ptr, ptr %7, align 8
  %41 = icmp ne ptr %40, null
  br i1 %41, label %42, label %108

42:                                               ; preds = %39
  store i8 1, ptr %11, align 1
  call void @llvm.lifetime.start.p0(i64 8, ptr %15) #14
  store i64 1, ptr %15, align 8
  call void @llvm.lifetime.start.p0(i64 8, ptr %16) #14
  store i64 4, ptr %16, align 8
  call void @llvm.lifetime.start.p0(i64 8, ptr %17) #14
  %43 = load i64, ptr %16, align 8
  %44 = icmp eq i64 %43, 1
  br i1 %44, label %45, label %48

45:                                               ; preds = %42
  %46 = load i64, ptr %15, align 8
  %47 = call noalias ptr @g_malloc(i64 noundef %46) #15
  store ptr %47, ptr %17, align 8
  br label %69

48:                                               ; preds = %42
  %49 = load i64, ptr %15, align 8
  %50 = call i1 @llvm.is.constant.i64(i64 %49)
  br i1 %50, label %51, label %64

51:                                               ; preds = %48
  %52 = load i64, ptr %16, align 8
  %53 = icmp eq i64 %52, 0
  br i1 %53, label %59, label %54

54:                                               ; preds = %51
  %55 = load i64, ptr %15, align 8
  %56 = load i64, ptr %16, align 8
  %57 = udiv i64 -1, %56
  %58 = icmp ule i64 %55, %57
  br i1 %58, label %59, label %64

59:                                               ; preds = %54, %51
  %60 = load i64, ptr %15, align 8
  %61 = load i64, ptr %16, align 8
  %62 = mul i64 %60, %61
  %63 = call noalias ptr @g_malloc(i64 noundef %62) #15
  store ptr %63, ptr %17, align 8
  br label %68

64:                                               ; preds = %54, %48
  %65 = load i64, ptr %15, align 8
  %66 = load i64, ptr %16, align 8
  %67 = call noalias ptr @g_malloc_n(i64 noundef %65, i64 noundef %66) #16
  store ptr %67, ptr %17, align 8
  br label %68

68:                                               ; preds = %64, %59
  br label %69

69:                                               ; preds = %68, %45
  %70 = load ptr, ptr %17, align 8
  store ptr %70, ptr %18, align 8
  call void @llvm.lifetime.end.p0(i64 8, ptr %17) #14
  call void @llvm.lifetime.end.p0(i64 8, ptr %16) #14
  call void @llvm.lifetime.end.p0(i64 8, ptr %15) #14
  %71 = load ptr, ptr %18, align 8
  store ptr %71, ptr %14, align 8
  %72 = load ptr, ptr %7, align 8
  %73 = getelementptr inbounds nuw %struct._header_field_info, ptr %72, i32 0, i32 7
  %74 = load i32, ptr %73, align 8
  %75 = load ptr, ptr %14, align 8
  store i32 %74, ptr %75, align 4
  %76 = load ptr, ptr %9, align 8
  %77 = load ptr, ptr %14, align 8
  %78 = call ptr @g_hash_table_lookup(ptr noundef %76, ptr noundef %77)
  store ptr %78, ptr %12, align 8
  %79 = icmp ne ptr %78, null
  br i1 %79, label %80, label %97

80:                                               ; preds = %69
  %81 = load ptr, ptr %14, align 8
  call void @g_free(ptr noundef %81)
  %82 = load ptr, ptr %12, align 8
  %83 = load ptr, ptr %8, align 8
  %84 = call i32 @g_str_equal(ptr noundef %82, ptr noundef %83)
  %85 = icmp ne i32 %84, 0
  br i1 %85, label %96, label %86

86:                                               ; preds = %80
  %87 = load ptr, ptr %6, align 8
  %88 = load ptr, ptr %7, align 8
  %89 = getelementptr inbounds nuw %struct._header_field_info, ptr %88, i32 0, i32 1
  %90 = load ptr, ptr %89, align 8
  %91 = load ptr, ptr %7, align 8
  %92 = getelementptr inbounds nuw %struct._header_field_info, ptr %91, i32 0, i32 7
  %93 = load i32, ptr %92, align 8
  %94 = load ptr, ptr %8, align 8
  %95 = load ptr, ptr %12, align 8
  call void (ptr, ptr, ...) @report_error(ptr noundef %87, ptr noundef @.str.1, ptr noundef %90, i32 noundef %93, ptr noundef %94, ptr noundef %95)
  store i1 false, ptr %5, align 1
  store i32 1, ptr %19, align 4
  br label %117

96:                                               ; preds = %80
  br label %104

97:                                               ; preds = %69
  %98 = load ptr, ptr %8, align 8
  %99 = call noalias ptr @g_strdup(ptr noundef %98)
  store ptr %99, ptr %13, align 8
  %100 = load ptr, ptr %9, align 8
  %101 = load ptr, ptr %14, align 8
  %102 = load ptr, ptr %13, align 8
  %103 = call i32 @g_hash_table_insert(ptr noundef %100, ptr noundef %101, ptr noundef %102)
  br label %104

104:                                              ; preds = %97, %96
  %105 = load ptr, ptr %7, align 8
  %106 = getelementptr inbounds nuw %struct._header_field_info, ptr %105, i32 0, i32 11
  %107 = load ptr, ptr %106, align 8
  store ptr %107, ptr %7, align 8
  br label %39, !llvm.loop !8

108:                                              ; preds = %39
  %109 = load i8, ptr %11, align 1, !range !9, !noundef !10
  %110 = trunc i8 %109 to i1
  br i1 %110, label %114, label %111

111:                                              ; preds = %108
  %112 = load ptr, ptr %6, align 8
  %113 = load ptr, ptr %8, align 8
  call void (ptr, ptr, ...) @report_error(ptr noundef %112, ptr noundef @.str.2, ptr noundef %113)
  br label %114

114:                                              ; preds = %111, %108
  %115 = load i8, ptr %11, align 1, !range !9, !noundef !10
  %116 = trunc i8 %115 to i1
  store i1 %116, ptr %5, align 1
  store i32 1, ptr %19, align 4
  br label %117

117:                                              ; preds = %114, %86
  call void @llvm.lifetime.end.p0(i64 8, ptr %14) #14
  call void @llvm.lifetime.end.p0(i64 8, ptr %13) #14
  call void @llvm.lifetime.end.p0(i64 8, ptr %12) #14
  call void @llvm.lifetime.end.p0(i64 1, ptr %11) #14
  call void @llvm.lifetime.end.p0(i64 8, ptr %10) #14
  %118 = load i1, ptr %5, align 1
  ret i1 %118
}