; Function Attrs: null_pointer_is_valid sspstrong uwtable
define hidden noundef zeroext i1 @add_hfid(ptr noundef readonly captures(none) %0, ptr noundef readonly captures(address_is_null) %1, ptr noundef %2, ptr noundef %3) local_unnamed_addr #0 {
  %.not52 = icmp eq ptr %1, null
  br i1 %.not52, label %.critedge, label %.lr.ph

.lr.ph:                                           ; preds = %4, %7
  %.04053 = phi ptr [ %8, %7 ], [ %1, %4 ]
  %5 = getelementptr inbounds nuw i8, ptr %.04053, i64 60
  %6 = load i32, ptr %5, align 4
  %.not48 = icmp eq i32 %6, -1
  br i1 %.not48, label %.lr.ph56.preheader, label %7

7:                                                ; preds = %.lr.ph
  %8 = tail call ptr @proto_registrar_get_nth(i32 noundef %6)
  %.not = icmp eq ptr %8, null
  br i1 %.not, label %.lr.ph56.preheader, label %.lr.ph, !llvm.loop !6

.lr.ph56.preheader:                               ; preds = %.lr.ph, %7
  br label %.lr.ph56

.lr.ph56:                                         ; preds = %.lr.ph56.preheader, %23
  %.155 = phi ptr [ %25, %23 ], [ %.04053, %.lr.ph56.preheader ]
  %9 = tail call noalias dereferenceable_or_null(4) ptr @g_malloc(i64 noundef 4) #8
  %10 = getelementptr inbounds nuw i8, ptr %.155, i64 48
  %11 = load i32, ptr %10, align 8
  store i32 %11, ptr %9, align 4
  %12 = tail call ptr @g_hash_table_lookup(ptr noundef %3, ptr noundef %9)
  %.not46 = icmp eq ptr %12, null
  br i1 %.not46, label %20, label %13

13:                                               ; preds = %.lr.ph56
  tail call void @g_free(ptr noundef %9)
  %14 = tail call i32 @g_str_equal(ptr noundef nonnull %12, ptr noundef %2)
  %.not47 = icmp eq i32 %14, 0
  br i1 %.not47, label %15, label %23

15:                                               ; preds = %13
  %16 = getelementptr inbounds nuw i8, ptr %.155, i64 48
  %17 = getelementptr inbounds nuw i8, ptr %.155, i64 8
  %18 = load ptr, ptr %17, align 8
  %19 = load i32, ptr %16, align 8
  tail call void (ptr, ptr, ...) @report_error(ptr noundef %0, ptr noundef nonnull @.str.1, ptr noundef %18, i32 noundef %19, ptr noundef %2, ptr noundef nonnull %12)
  br label %._crit_edge

20:                                               ; preds = %.lr.ph56
  %21 = tail call noalias ptr @g_strdup(ptr noundef %2)
  %22 = tail call i32 @g_hash_table_insert(ptr noundef %3, ptr noundef %9, ptr noundef %21)
  br label %23

23:                                               ; preds = %13, %20
  %24 = getelementptr inbounds nuw i8, ptr %.155, i64 64
  %25 = load ptr, ptr %24, align 8
  %.not45 = icmp eq ptr %25, null
  br i1 %.not45, label %._crit_edge, label %.lr.ph56, !llvm.loop !8

.critedge:                                        ; preds = %4
  tail call void (ptr, ptr, ...) @report_error(ptr noundef %0, ptr noundef nonnull @.str.2, ptr noundef %2)
  br label %._crit_edge

._crit_edge:                                      ; preds = %23, %.critedge, %15
  %.0 = phi i1 [ false, %15 ], [ false, %.critedge ], [ true, %23 ]
  ret i1 %.0
}